target datalayout = "e-m:e-p270:32:32-p271:32:32-p272:64:64-i64:64-i128:128-f80:128-n8:16:32:64-S128"
target triple = "x86_64-pc-linux-gnu"

%struct.stbi__write_context = type { ptr, ptr }
%struct.__va_list_tag = type { i32, i32, ptr, ptr }

; Function Attrs: mustprogress uwtable
define internal void @_ZL14stbiw__writefvP19stbi__write_contextPKcP13__va_list_tag(ptr noundef %0, ptr noundef %1, ptr noundef %2) #4 {
  %4 = alloca ptr, align 8
  %5 = alloca ptr, align 8
  %6 = alloca ptr, align 8
  %7 = alloca i8, align 1
  %8 = alloca i32, align 4
  %9 = alloca [2 x i8], align 1
  %10 = alloca i32, align 4
  %11 = alloca [4 x i8], align 1
  store ptr %0, ptr %4, align 8
  store ptr %1, ptr %5, align 8
  store ptr %2, ptr %6, align 8
  br label %12

12:                                               ; preds = %124, %3
  %13 = load ptr, ptr %5, align 8
  %14 = load i8, ptr %13, align 1
  %15 = icmp ne i8 %14, 0
  br i1 %15, label %16, label %125

16:                                               ; preds = %12
  %17 = load ptr, ptr %5, align 8
  %18 = getelementptr inbounds i8, ptr %17, i32 1
  store ptr %18, ptr %5, align 8
  %19 = load i8, ptr %17, align 1
  %20 = sext i8 %19 to i32
  switch i32 %20, label %123 [
    i32 32, label %21
    i32 49, label %22
    i32 50, label %47
    i32 52, label %80
  ]

21:                                               ; preds = %16
  br label %124

22:                                               ; preds = %16
  %23 = load ptr, ptr %6, align 8
  %24 = getelementptr inbounds %struct.__va_list_tag, ptr %23, i32 0, i32 0
  %25 = load i32, ptr %24, align 8
  %26 = icmp ule i32 %25, 40
  br i1 %26, label %27, label %32

27:                                               ; preds = %22
  %28 = getelementptr inbounds %struct.__va_list_tag, ptr %23, i32 0, i32 3
  %29 = load ptr, ptr %28, align 8
  %30 = getelementptr i8, ptr %29, i32 %25
  %31 = add i32 %25, 8
  store i32 %31, ptr %24, align 8
  br label %36

32:                                               ; preds = %22
  %33 = getelementptr inbounds %struct.__va_list_tag, ptr %23, i32 0, i32 2
  %34 = load ptr, ptr %33, align 8
  %35 = getelementptr i8, ptr %34, i32 8
  store ptr %35, ptr %33, align 8
  br label %36

36:                                               ; preds = %32, %27
  %37 = phi ptr [ %30, %27 ], [ %34, %32 ]
  %38 = load i32, ptr %37, align 4
  %39 = and i32 %38, 255
  %40 = trunc i32 %39 to i8
  store i8 %40, ptr %7, align 1
  %41 = load ptr, ptr %4, align 8
  %42 = getelementptr inbounds %struct.stbi__write_context, ptr %41, i32 0, i32 0
  %43 = load ptr, ptr %42, align 8
  %44 = load ptr, ptr %4, align 8
  %45 = getelementptr inbounds %struct.stbi__write_context, ptr %44, i32 0, i32 1
  %46 = load ptr, ptr %45, align 8
  call void %43(ptr noundef %46, ptr noundef %7, i32 noundef 1)
  br label %124

47:                                               ; preds = %16
  %48 = load ptr, ptr %6, align 8
  %49 = getelementptr inbounds %struct.__va_list_tag, ptr %48, i32 0, i32 0
  %50 = load i32, ptr %49, align 8
  %51 = icmp ule i32 %50, 40
  br i1 %51, label %52, label %57

52:                                               ; preds = %47
  %53 = getelementptr inbounds %struct.__va_list_tag, ptr %48, i32 0, i32 3
  %54 = load ptr, ptr %53, align 8
  %55 = getelementptr i8, ptr %54, i32 %50
  %56 = add i32 %50, 8
  store i32 %56, ptr %49, align 8
  br label %61

57:                                               ; preds = %47
  %58 = getelementptr inbounds %struct.__va_list_tag, ptr %48, i32 0, i32 2
  %59 = load ptr, ptr %58, align 8
  %60 = getelementptr i8, ptr %59, i32 8
  store ptr %60, ptr %58, align 8
  br label %61

61:                                               ; preds = %57, %52
  %62 = phi ptr [ %55, %52 ], [ %59, %57 ]
  %63 = load i32, ptr %62, align 4
  store i32 %63, ptr %8, align 4
  %64 = load i32, ptr %8, align 4
  %65 = and i32 %64, 255
  %66 = trunc i32 %65 to i8
  %67 = getelementptr inbounds [2 x i8], ptr %9, i64 0, i64 0
  store i8 %66, ptr %67, align 1
  %68 = load i32, ptr %8, align 4
  %69 = ashr i32 %68, 8
  %70 = and i32 %69, 255
  %71 = trunc i32 %70 to i8
  %72 = getelementptr inbounds [2 x i8], ptr %9, i64 0, i64 1
  store i8 %71, ptr %72, align 1
  %73 = load ptr, ptr %4, align 8
  %74 = getelementptr inbounds %struct.stbi__write_context, ptr %73, i32 0, i32 0
  %75 = load ptr, ptr %74, align 8
  %76 = load ptr, ptr %4, align 8
  %77 = getelementptr inbounds %struct.stbi__write_context, ptr %76, i32 0, i32 1
  %78 = load ptr, ptr %77, align 8
  %79 = getelementptr inbounds [2 x i8], ptr %9, i64 0, i64 0
  call void %75(ptr noundef %78, ptr noundef %79, i32 noundef 2)
  br label %124

80:                                               ; preds = %16
  %81 = load ptr, ptr %6, align 8
  %82 = getelementptr inbounds %struct.__va_list_tag, ptr %81, i32 0, i32 0
  %83 = load i32, ptr %82, align 8
  %84 = icmp ule i32 %83, 40
  br i1 %84, label %85, label %90

85:                                               ; preds = %80
  %86 = getelementptr inbounds %struct.__va_list_tag, ptr %81, i32 0, i32 3
  %87 = load ptr, ptr %86, align 8
  %88 = getelementptr i8, ptr %87, i32 %83
  %89 = add i32 %83, 8
  store i32 %89, ptr %82, align 8
  br label %94

90:                                               ; preds = %80
  %91 = getelementptr inbounds %struct.__va_list_tag, ptr %81, i32 0, i32 2
  %92 = load ptr, ptr %91, align 8
  %93 = getelementptr i8, ptr %92, i32 8
  store ptr %93, ptr %91, align 8
  br label %94

94:                                               ; preds = %90, %85
  %95 = phi ptr [ %88, %85 ], [ %92, %90 ]
  %96 = load i32, ptr %95, align 4
  store i32 %96, ptr %10, align 4
  %97 = load i32, ptr %10, align 4
  %98 = and i32 %97, 255
  %99 = trunc i32 %98 to i8
  %100 = getelementptr inbounds [4 x i8], ptr %11, i64 0, i64 0
  store i8 %99, ptr %100, align 1
  %101 = load i32, ptr %10, align 4
  %102 = lshr i32 %101, 8
  %103 = and i32 %102, 255
  %104 = trunc i32 %103 to i8
  %105 = getelementptr inbounds [4 x i8], ptr %11, i64 0, i64 1
  store i8 %104, ptr %105, align 1
  %106 = load i32, ptr %10, align 4
  %107 = lshr i32 %106, 16
  %108 = and i32 %107, 255
  %109 = trunc i32 %108 to i8
  %110 = getelementptr inbounds [4 x i8], ptr %11, i64 0, i64 2
  store i8 %109, ptr %110, align 1
  %111 = load i32, ptr %10, align 4
  %112 = lshr i32 %111, 24
  %113 = and i32 %112, 255
  %114 = trunc i32 %113 to i8
  %115 = getelementptr inbounds [4 x i8], ptr %11, i64 0, i64 3
  store i8 %114, ptr %115, align 1
  %116 = load ptr, ptr %4, align 8
  %117 = getelementptr inbounds %struct.stbi__write_context, ptr %116, i32 0, i32 0
  %118 = load ptr, ptr %117, align 8
  %119 = load ptr, ptr %4, align 8
  %120 = getelementptr inbounds %struct.stbi__write_context, ptr %119, i32 0, i32 1
  %121 = load ptr, ptr %120, align 8
  %122 = getelementptr inbounds [4 x i8], ptr %11, i64 0, i64 0
  call void %118(ptr noundef %121, ptr noundef %122, i32 noundef 4)
  br label %124

123:                                              ; preds = %16
  br label %125

124:                                              ; preds = %94, %61, %36, %21
  br label %12, !llvm.loop !50

125:                                              ; preds = %123, %12
  ret void
}