; Function Attrs: mustprogress uwtable
define internal fastcc void @_ZL14stbiw__writefvP19stbi__write_contextPKcP13__va_list_tag(ptr nocapture noundef readonly %0, ptr nocapture noundef readonly %1, ptr nocapture noundef %2) unnamed_addr #3 {
  %4 = alloca i8, align 1
  %5 = alloca [2 x i8], align 1
  %6 = alloca [4 x i8], align 1
  %7 = load i8, ptr %1, align 1
  %.not20 = icmp eq i8 %7, 0
  br i1 %.not20, label %._crit_edge, label %.lr.ph

.lr.ph:                                           ; preds = %3
  %8 = getelementptr inbounds i8, ptr %2, i64 8
  %9 = getelementptr inbounds i8, ptr %2, i64 16
  %10 = getelementptr inbounds i8, ptr %6, i64 1
  %11 = getelementptr inbounds i8, ptr %6, i64 2
  %12 = getelementptr inbounds i8, ptr %6, i64 3
  %13 = getelementptr inbounds i8, ptr %0, i64 8
  %14 = getelementptr inbounds i8, ptr %5, i64 1
  br label %15

15:                                               ; preds = %.lr.ph, %77
  %16 = phi i8 [ %7, %.lr.ph ], [ %78, %77 ]
  %.021 = phi ptr [ %1, %.lr.ph ], [ %17, %77 ]
  %17 = getelementptr inbounds i8, ptr %.021, i64 1
  switch i8 %16, label %._crit_edge [
    i8 32, label %77
    i8 49, label %18
    i8 50, label %35
    i8 52, label %54
  ]

18:                                               ; preds = %15
  %19 = load i32, ptr %2, align 8
  %20 = icmp ult i32 %19, 41
  br i1 %20, label %21, label %26

21:                                               ; preds = %18
  %22 = load ptr, ptr %9, align 8
  %23 = zext nneg i32 %19 to i64
  %24 = getelementptr i8, ptr %22, i64 %23
  %25 = add nuw nsw i32 %19, 8
  store i32 %25, ptr %2, align 8
  br label %29

26:                                               ; preds = %18
  %27 = load ptr, ptr %8, align 8
  %28 = getelementptr i8, ptr %27, i64 8
  store ptr %28, ptr %8, align 8
  br label %29

29:                                               ; preds = %26, %21
  %30 = phi ptr [ %24, %21 ], [ %27, %26 ]
  %31 = load i32, ptr %30, align 4
  %32 = trunc i32 %31 to i8
  store i8 %32, ptr %4, align 1
  %33 = load ptr, ptr %0, align 8
  %34 = load ptr, ptr %13, align 8
  call void %33(ptr noundef %34, ptr noundef nonnull %4, i32 noundef 1)
  br label %77

35:                                               ; preds = %15
  %36 = load i32, ptr %2, align 8
  %37 = icmp ult i32 %36, 41
  br i1 %37, label %38, label %43

38:                                               ; preds = %35
  %39 = load ptr, ptr %9, align 8
  %40 = zext nneg i32 %36 to i64
  %41 = getelementptr i8, ptr %39, i64 %40
  %42 = add nuw nsw i32 %36, 8
  store i32 %42, ptr %2, align 8
  br label %46

43:                                               ; preds = %35
  %44 = load ptr, ptr %8, align 8
  %45 = getelementptr i8, ptr %44, i64 8
  store ptr %45, ptr %8, align 8
  br label %46

46:                                               ; preds = %43, %38
  %47 = phi ptr [ %41, %38 ], [ %44, %43 ]
  %48 = load i32, ptr %47, align 4
  %49 = trunc i32 %48 to i8
  store i8 %49, ptr %5, align 1
  %50 = lshr i32 %48, 8
  %51 = trunc i32 %50 to i8
  store i8 %51, ptr %14, align 1
  %52 = load ptr, ptr %0, align 8
  %53 = load ptr, ptr %13, align 8
  call void %52(ptr noundef %53, ptr noundef nonnull %5, i32 noundef 2)
  br label %77

54:                                               ; preds = %15
  %55 = load i32, ptr %2, align 8
  %56 = icmp ult i32 %55, 41
  br i1 %56, label %57, label %62

57:                                               ; preds = %54
  %58 = load ptr, ptr %9, align 8
  %59 = zext nneg i32 %55 to i64
  %60 = getelementptr i8, ptr %58, i64 %59
  %61 = add nuw nsw i32 %55, 8
  store i32 %61, ptr %2, align 8
  br label %65

62:                                               ; preds = %54
  %63 = load ptr, ptr %8, align 8
  %64 = getelementptr i8, ptr %63, i64 8
  store ptr %64, ptr %8, align 8
  br label %65

65:                                               ; preds = %62, %57
  %66 = phi ptr [ %60, %57 ], [ %63, %62 ]
  %67 = load i32, ptr %66, align 4
  %68 = trunc i32 %67 to i8
  store i8 %68, ptr %6, align 1
  %69 = lshr i32 %67, 8
  %70 = trunc i32 %69 to i8
  store i8 %70, ptr %10, align 1
  %71 = lshr i32 %67, 16
  %72 = trunc i32 %71 to i8
  store i8 %72, ptr %11, align 1
  %73 = lshr i32 %67, 24
  %74 = trunc i32 %73 to i8
  store i8 %74, ptr %12, align 1
  %75 = load ptr, ptr %0, align 8
  %76 = load ptr, ptr %13, align 8
  call void %75(ptr noundef %76, ptr noundef nonnull %6, i32 noundef 4)
  br label %77

77:                                               ; preds = %15, %65, %46, %29
  %78 = load i8, ptr %17, align 1
  %.not = icmp eq i8 %78, 0
  br i1 %.not, label %._crit_edge, label %15, !llvm.loop !58

._crit_edge:                                      ; preds = %77, %15, %3
  ret void
}